; ModuleID = '27/1411.c'
source_filename = "27/1411.c"
target datalayout = "e-m:e-p270:32:32-p271:32:32-p272:64:64-i64:64-f80:128-n8:16:32:64-S128"
target triple = "x86_64-pc-linux-gnu"

@.str = private unnamed_addr constant [3 x i8] c"%d\00", align 1
@.str.1 = private unnamed_addr constant [9 x i8] c"%f %f %f\00", align 1
@.str.2 = private unnamed_addr constant [17 x i8] c"x1=%.5f;x2=%.5f\0A\00", align 1
@.str.3 = private unnamed_addr constant [12 x i8] c"x1=x2=%.5f\0A\00", align 1
@.str.4 = private unnamed_addr constant [29 x i8] c"x1=%.5f+%.5fi;x2=%.5f-%.5fi\0A\00", align 1

; Function Attrs: noinline nounwind uwtable
define dso_local i32 @main() #0 {
  %1 = alloca i32, align 4
  %2 = alloca i32, align 4
  %3 = alloca i32, align 4
  %4 = alloca [100 x double], align 16
  %5 = alloca [100 x double], align 16
  %6 = alloca [100 x double], align 16
  %7 = alloca [100 x double], align 16
  %8 = alloca [100 x double], align 16
  %9 = alloca [100 x float], align 16
  %10 = alloca [100 x float], align 16
  %11 = alloca [100 x float], align 16
  store i32 0, i32* %1, align 4
  %12 = call i32 (i8*, ...) @__isoc99_scanf(i8* getelementptr inbounds ([3 x i8], [3 x i8]* @.str, i64 0, i64 0), i32* %2)
  store i32 0, i32* %3, align 4
  br label %13

13:                                               ; preds = %28, %0
  %14 = load i32, i32* %3, align 4
  %15 = load i32, i32* %2, align 4
  %16 = icmp slt i32 %14, %15
  br i1 %16, label %17, label %31

17:                                               ; preds = %13
  %18 = load i32, i32* %3, align 4
  %19 = sext i32 %18 to i64
  %20 = getelementptr inbounds [100 x float], [100 x float]* %9, i64 0, i64 %19
  %21 = load i32, i32* %3, align 4
  %22 = sext i32 %21 to i64
  %23 = getelementptr inbounds [100 x float], [100 x float]* %10, i64 0, i64 %22
  %24 = load i32, i32* %3, align 4
  %25 = sext i32 %24 to i64
  %26 = getelementptr inbounds [100 x float], [100 x float]* %11, i64 0, i64 %25
  %27 = call i32 (i8*, ...) @__isoc99_scanf(i8* getelementptr inbounds ([9 x i8], [9 x i8]* @.str.1, i64 0, i64 0), float* %20, float* %23, float* %26)
  br label %28

28:                                               ; preds = %17
  %29 = load i32, i32* %3, align 4
  %30 = add nsw i32 %29, 1
  store i32 %30, i32* %3, align 4
  br label %13

31:                                               ; preds = %13
  store i32 0, i32* %3, align 4
  br label %32

32:                                               ; preds = %204, %31
  %33 = load i32, i32* %3, align 4
  %34 = load i32, i32* %2, align 4
  %35 = icmp slt i32 %33, %34
  br i1 %35, label %36, label %207

36:                                               ; preds = %32
  %37 = load i32, i32* %3, align 4
  %38 = sext i32 %37 to i64
  %39 = getelementptr inbounds [100 x float], [100 x float]* %10, i64 0, i64 %38
  %40 = load float, float* %39, align 4
  %41 = load i32, i32* %3, align 4
  %42 = sext i32 %41 to i64
  %43 = getelementptr inbounds [100 x float], [100 x float]* %10, i64 0, i64 %42
  %44 = load float, float* %43, align 4
  %45 = fmul float %40, %44
  %46 = load i32, i32* %3, align 4
  %47 = sext i32 %46 to i64
  %48 = getelementptr inbounds [100 x float], [100 x float]* %9, i64 0, i64 %47
  %49 = load float, float* %48, align 4
  %50 = fmul float 4.000000e+00, %49
  %51 = load i32, i32* %3, align 4
  %52 = sext i32 %51 to i64
  %53 = getelementptr inbounds [100 x float], [100 x float]* %11, i64 0, i64 %52
  %54 = load float, float* %53, align 4
  %55 = fmul float %50, %54
  %56 = fsub float %45, %55
  %57 = fpext float %56 to double
  %58 = load i32, i32* %3, align 4
  %59 = sext i32 %58 to i64
  %60 = getelementptr inbounds [100 x double], [100 x double]* %6, i64 0, i64 %59
  store double %57, double* %60, align 8
  %61 = load i32, i32* %3, align 4
  %62 = sext i32 %61 to i64
  %63 = getelementptr inbounds [100 x double], [100 x double]* %6, i64 0, i64 %62
  %64 = load double, double* %63, align 8
  %65 = fcmp ogt double %64, 0x3EB0C6F7A0B5ED8D
  br i1 %65, label %66, label %120

66:                                               ; preds = %36
  %67 = load i32, i32* %3, align 4
  %68 = sext i32 %67 to i64
  %69 = getelementptr inbounds [100 x float], [100 x float]* %10, i64 0, i64 %68
  %70 = load float, float* %69, align 4
  %71 = fneg float %70
  %72 = fpext float %71 to double
  %73 = load i32, i32* %3, align 4
  %74 = sext i32 %73 to i64
  %75 = getelementptr inbounds [100 x double], [100 x double]* %6, i64 0, i64 %74
  %76 = load double, double* %75, align 8
  %77 = call double @sqrt(double %76) #3
  %78 = fadd double %72, %77
  %79 = load i32, i32* %3, align 4
  %80 = sext i32 %79 to i64
  %81 = getelementptr inbounds [100 x float], [100 x float]* %9, i64 0, i64 %80
  %82 = load float, float* %81, align 4
  %83 = fmul float 2.000000e+00, %82
  %84 = fpext float %83 to double
  %85 = fdiv double %78, %84
  %86 = load i32, i32* %3, align 4
  %87 = sext i32 %86 to i64
  %88 = getelementptr inbounds [100 x double], [100 x double]* %4, i64 0, i64 %87
  store double %85, double* %88, align 8
  %89 = load i32, i32* %3, align 4
  %90 = sext i32 %89 to i64
  %91 = getelementptr inbounds [100 x float], [100 x float]* %10, i64 0, i64 %90
  %92 = load float, float* %91, align 4
  %93 = fneg float %92
  %94 = fpext float %93 to double
  %95 = load i32, i32* %3, align 4
  %96 = sext i32 %95 to i64
  %97 = getelementptr inbounds [100 x double], [100 x double]* %6, i64 0, i64 %96
  %98 = load double, double* %97, align 8
  %99 = call double @sqrt(double %98) #3
  %100 = fsub double %94, %99
  %101 = load i32, i32* %3, align 4
  %102 = sext i32 %101 to i64
  %103 = getelementptr inbounds [100 x float], [100 x float]* %9, i64 0, i64 %102
  %104 = load float, float* %103, align 4
  %105 = fmul float 2.000000e+00, %104
  %106 = fpext float %105 to double
  %107 = fdiv double %100, %106
  %108 = load i32, i32* %3, align 4
  %109 = sext i32 %108 to i64
  %110 = getelementptr inbounds [100 x double], [100 x double]* %5, i64 0, i64 %109
  store double %107, double* %110, align 8
  %111 = load i32, i32* %3, align 4
  %112 = sext i32 %111 to i64
  %113 = getelementptr inbounds [100 x double], [100 x double]* %4, i64 0, i64 %112
  %114 = load double, double* %113, align 8
  %115 = load i32, i32* %3, align 4
  %116 = sext i32 %115 to i64
  %117 = getelementptr inbounds [100 x double], [100 x double]* %5, i64 0, i64 %116
  %118 = load double, double* %117, align 8
  %119 = call i32 (i8*, ...) @printf(i8* getelementptr inbounds ([17 x i8], [17 x i8]* @.str.2, i64 0, i64 0), double %114, double %118)
  br label %203

120:                                              ; preds = %36
  %121 = load i32, i32* %3, align 4
  %122 = sext i32 %121 to i64
  %123 = getelementptr inbounds [100 x double], [100 x double]* %6, i64 0, i64 %122
  %124 = load double, double* %123, align 8
  %125 = fcmp ole double %124, 0x3EB0C6F7A0B5ED8D
  br i1 %125, label %126, label %153

126:                                              ; preds = %120
  %127 = load i32, i32* %3, align 4
  %128 = sext i32 %127 to i64
  %129 = getelementptr inbounds [100 x double], [100 x double]* %6, i64 0, i64 %128
  %130 = load double, double* %129, align 8
  %131 = fcmp oge double %130, 0xBEB0C6F7A0B5ED8D
  br i1 %131, label %132, label %153

132:                                              ; preds = %126
  %133 = load i32, i32* %3, align 4
  %134 = sext i32 %133 to i64
  %135 = getelementptr inbounds [100 x float], [100 x float]* %10, i64 0, i64 %134
  %136 = load float, float* %135, align 4
  %137 = fneg float %136
  %138 = load i32, i32* %3, align 4
  %139 = sext i32 %138 to i64
  %140 = getelementptr inbounds [100 x float], [100 x float]* %9, i64 0, i64 %139
  %141 = load float, float* %140, align 4
  %142 = fmul float 2.000000e+00, %141
  %143 = fdiv float %137, %142
  %144 = fpext float %143 to double
  %145 = load i32, i32* %3, align 4
  %146 = sext i32 %145 to i64
  %147 = getelementptr inbounds [100 x double], [100 x double]* %4, i64 0, i64 %146
  store double %144, double* %147, align 8
  %148 = load i32, i32* %3, align 4
  %149 = sext i32 %148 to i64
  %150 = getelementptr inbounds [100 x double], [100 x double]* %4, i64 0, i64 %149
  %151 = load double, double* %150, align 8
  %152 = call i32 (i8*, ...) @printf(i8* getelementptr inbounds ([12 x i8], [12 x i8]* @.str.3, i64 0, i64 0), double %151)
  br label %202

153:                                              ; preds = %126, %120
  %154 = load i32, i32* %3, align 4
  %155 = sext i32 %154 to i64
  %156 = getelementptr inbounds [100 x float], [100 x float]* %10, i64 0, i64 %155
  %157 = load float, float* %156, align 4
  %158 = fneg float %157
  %159 = load i32, i32* %3, align 4
  %160 = sext i32 %159 to i64
  %161 = getelementptr inbounds [100 x float], [100 x float]* %9, i64 0, i64 %160
  %162 = load float, float* %161, align 4
  %163 = fmul float 2.000000e+00, %162
  %164 = fdiv float %158, %163
  %165 = fpext float %164 to double
  %166 = load i32, i32* %3, align 4
  %167 = sext i32 %166 to i64
  %168 = getelementptr inbounds [100 x double], [100 x double]* %7, i64 0, i64 %167
  store double %165, double* %168, align 8
  %169 = load i32, i32* %3, align 4
  %170 = sext i32 %169 to i64
  %171 = getelementptr inbounds [100 x double], [100 x double]* %6, i64 0, i64 %170
  %172 = load double, double* %171, align 8
  %173 = fneg double %172
  %174 = call double @sqrt(double %173) #3
  %175 = load i32, i32* %3, align 4
  %176 = sext i32 %175 to i64
  %177 = getelementptr inbounds [100 x float], [100 x float]* %9, i64 0, i64 %176
  %178 = load float, float* %177, align 4
  %179 = fmul float 2.000000e+00, %178
  %180 = fpext float %179 to double
  %181 = fdiv double %174, %180
  %182 = load i32, i32* %3, align 4
  %183 = sext i32 %182 to i64
  %184 = getelementptr inbounds [100 x double], [100 x double]* %8, i64 0, i64 %183
  store double %181, double* %184, align 8
  %185 = load i32, i32* %3, align 4
  %186 = sext i32 %185 to i64
  %187 = getelementptr inbounds [100 x double], [100 x double]* %7, i64 0, i64 %186
  %188 = load double, double* %187, align 8
  %189 = load i32, i32* %3, align 4
  %190 = sext i32 %189 to i64
  %191 = getelementptr inbounds [100 x double], [100 x double]* %8, i64 0, i64 %190
  %192 = load double, double* %191, align 8
  %193 = load i32, i32* %3, align 4
  %194 = sext i32 %193 to i64
  %195 = getelementptr inbounds [100 x double], [100 x double]* %7, i64 0, i64 %194
  %196 = load double, double* %195, align 8
  %197 = load i32, i32* %3, align 4
  %198 = sext i32 %197 to i64
  %199 = getelementptr inbounds [100 x double], [100 x double]* %8, i64 0, i64 %198
  %200 = load double, double* %199, align 8
  %201 = call i32 (i8*, ...) @printf(i8* getelementptr inbounds ([29 x i8], [29 x i8]* @.str.4, i64 0, i64 0), double %188, double %192, double %196, double %200)
  br label %202

202:                                              ; preds = %153, %132
  br label %203

203:                                              ; preds = %202, %66
  br label %204

204:                                              ; preds = %203
  %205 = load i32, i32* %3, align 4
  %206 = add nsw i32 %205, 1
  store i32 %206, i32* %3, align 4
  br label %32

207:                                              ; preds = %32
  ret i32 0
}

declare dso_local i32 @__isoc99_scanf(i8*, ...) #1

; Function Attrs: nounwind
declare dso_local double @sqrt(double) #2

declare dso_local i32 @printf(i8*, ...) #1


!llvm.module.flags = !{!0}
!llvm.ident = !{!1}

!0 = !{i32 1, !"wchar_size", i32 4}
!1 = !{!"clang version 10.0.0-4ubuntu1 "}
